target datalayout = "e-m:e-p270:32:32-p271:32:32-p272:64:64-i64:64-i128:128-f80:128-n8:16:32:64-S128"
target triple = "x86_64-pc-linux-gnu"

%struct.ieee802154_map_tab_t = type { ptr, ptr }
%struct.ieee802154_short_addr = type { i16, i16 }
%struct.ieee802154_map_rec = type { ptr, i32, i32, i64 }

; Function Attrs: null_pointer_is_valid sspstrong uwtable
define hidden ptr @ieee802154_addr_update(ptr noundef %0, i16 noundef zeroext %1, i16 noundef zeroext %2, i64 noundef %3, ptr noundef %4, i32 noundef %5) #0 {
  %7 = alloca ptr, align 8
  %8 = alloca ptr, align 8
  %9 = alloca i16, align 2
  %10 = alloca i16, align 2
  %11 = alloca i64, align 8
  %12 = alloca ptr, align 8
  %13 = alloca i32, align 4
  %14 = alloca %struct.ieee802154_short_addr, align 2
  %15 = alloca ptr, align 8
  %16 = alloca ptr, align 8
  %17 = alloca i32, align 4
  store ptr %0, ptr %8, align 8
  store i16 %1, ptr %9, align 2
  store i16 %2, ptr %10, align 2
  store i64 %3, ptr %11, align 8
  store ptr %4, ptr %12, align 8
  store i32 %5, ptr %13, align 4
  call void @llvm.lifetime.start.p0(i64 4, ptr %14) #17
  call void @llvm.lifetime.start.p0(i64 8, ptr %15) #17
  call void @llvm.lifetime.start.p0(i64 8, ptr %16) #17
  %18 = load i16, ptr %10, align 2
  %19 = getelementptr inbounds nuw %struct.ieee802154_short_addr, ptr %14, i32 0, i32 0
  store i16 %18, ptr %19, align 2
  %20 = load i16, ptr %9, align 2
  %21 = getelementptr inbounds nuw %struct.ieee802154_short_addr, ptr %14, i32 0, i32 1
  store i16 %20, ptr %21, align 2
  %22 = load ptr, ptr %8, align 8
  %23 = getelementptr inbounds nuw %struct.ieee802154_map_tab_t, ptr %22, i32 0, i32 1
  %24 = load ptr, ptr %23, align 8
  %25 = call ptr @g_hash_table_lookup(ptr noundef %24, ptr noundef %14)
  store ptr %25, ptr %15, align 8
  %26 = load ptr, ptr %15, align 8
  %27 = icmp ne ptr %26, null
  br i1 %27, label %28, label %41

28:                                               ; preds = %6
  %29 = load ptr, ptr %15, align 8
  %30 = getelementptr inbounds nuw %struct.ieee802154_map_rec, ptr %29, i32 0, i32 3
  %31 = load i64, ptr %30, align 8
  %32 = load i64, ptr %11, align 8
  %33 = icmp eq i64 %31, %32
  br i1 %33, label %34, label %36

34:                                               ; preds = %28
  %35 = load ptr, ptr %15, align 8
  store ptr %35, ptr %7, align 8
  store i32 1, ptr %17, align 4
  br label %98

36:                                               ; preds = %28
  %37 = load i32, ptr %13, align 4
  %38 = load ptr, ptr %15, align 8
  %39 = getelementptr inbounds nuw %struct.ieee802154_map_rec, ptr %38, i32 0, i32 2
  store i32 %37, ptr %39, align 4
  br label %40

40:                                               ; preds = %36
  br label %41

41:                                               ; preds = %40, %6
  %42 = call ptr @wmem_file_scope()
  %43 = call noalias ptr @wmem_alloc(ptr noundef %42, i64 noundef 24) #18
  store ptr %43, ptr %15, align 8
  %44 = load ptr, ptr %12, align 8
  %45 = load ptr, ptr %15, align 8
  %46 = getelementptr inbounds nuw %struct.ieee802154_map_rec, ptr %45, i32 0, i32 0
  store ptr %44, ptr %46, align 8
  %47 = load i32, ptr %13, align 4
  %48 = load ptr, ptr %15, align 8
  %49 = getelementptr inbounds nuw %struct.ieee802154_map_rec, ptr %48, i32 0, i32 1
  store i32 %47, ptr %49, align 8
  %50 = load ptr, ptr %15, align 8
  %51 = getelementptr inbounds nuw %struct.ieee802154_map_rec, ptr %50, i32 0, i32 2
  store i32 0, ptr %51, align 4
  %52 = load i64, ptr %11, align 8
  %53 = load ptr, ptr %15, align 8
  %54 = getelementptr inbounds nuw %struct.ieee802154_map_rec, ptr %53, i32 0, i32 3
  store i64 %52, ptr %54, align 8
  %55 = load ptr, ptr %8, align 8
  %56 = getelementptr inbounds nuw %struct.ieee802154_map_tab_t, ptr %55, i32 0, i32 1
  %57 = load ptr, ptr %56, align 8
  %58 = call i32 @g_hash_table_lookup_extended(ptr noundef %57, ptr noundef %14, ptr noundef %16, ptr noundef null)
  %59 = icmp ne i32 %58, 0
  br i1 %59, label %60, label %67

60:                                               ; preds = %41
  %61 = load ptr, ptr %8, align 8
  %62 = getelementptr inbounds nuw %struct.ieee802154_map_tab_t, ptr %61, i32 0, i32 1
  %63 = load ptr, ptr %62, align 8
  %64 = load ptr, ptr %16, align 8
  %65 = load ptr, ptr %15, align 8
  %66 = call i32 @g_hash_table_insert(ptr noundef %63, ptr noundef %64, ptr noundef %65)
  br label %75

67:                                               ; preds = %41
  %68 = load ptr, ptr %8, align 8
  %69 = getelementptr inbounds nuw %struct.ieee802154_map_tab_t, ptr %68, i32 0, i32 1
  %70 = load ptr, ptr %69, align 8
  %71 = call ptr @wmem_file_scope()
  %72 = call ptr @wmem_memdup(ptr noundef %71, ptr noundef %14, i64 noundef 4) #21
  %73 = load ptr, ptr %15, align 8
  %74 = call i32 @g_hash_table_insert(ptr noundef %70, ptr noundef %72, ptr noundef %73)
  br label %75

75:                                               ; preds = %67, %60
  %76 = load ptr, ptr %8, align 8
  %77 = getelementptr inbounds nuw %struct.ieee802154_map_tab_t, ptr %76, i32 0, i32 0
  %78 = load ptr, ptr %77, align 8
  %79 = call i32 @g_hash_table_lookup_extended(ptr noundef %78, ptr noundef %11, ptr noundef %16, ptr noundef null)
  %80 = icmp ne i32 %79, 0
  br i1 %80, label %81, label %88

81:                                               ; preds = %75
  %82 = load ptr, ptr %8, align 8
  %83 = getelementptr inbounds nuw %struct.ieee802154_map_tab_t, ptr %82, i32 0, i32 0
  %84 = load ptr, ptr %83, align 8
  %85 = load ptr, ptr %16, align 8
  %86 = load ptr, ptr %15, align 8
  %87 = call i32 @g_hash_table_insert(ptr noundef %84, ptr noundef %85, ptr noundef %86)
  br label %96

88:                                               ; preds = %75
  %89 = load ptr, ptr %8, align 8
  %90 = getelementptr inbounds nuw %struct.ieee802154_map_tab_t, ptr %89, i32 0, i32 0
  %91 = load ptr, ptr %90, align 8
  %92 = call ptr @wmem_file_scope()
  %93 = call ptr @wmem_memdup(ptr noundef %92, ptr noundef %11, i64 noundef 8) #21
  %94 = load ptr, ptr %15, align 8
  %95 = call i32 @g_hash_table_insert(ptr noundef %91, ptr noundef %93, ptr noundef %94)
  br label %96

96:                                               ; preds = %88, %81
  %97 = load ptr, ptr %15, align 8
  store ptr %97, ptr %7, align 8
  store i32 1, ptr %17, align 4
  br label %98

98:                                               ; preds = %96, %34
  call void @llvm.lifetime.end.p0(i64 8, ptr %16) #17
  call void @llvm.lifetime.end.p0(i64 8, ptr %15) #17
  call void @llvm.lifetime.end.p0(i64 4, ptr %14) #17
  %99 = load ptr, ptr %7, align 8
  ret ptr %99
}