; Function Attrs: null_pointer_is_valid sspstrong uwtable
define hidden ptr @ieee802154_addr_update(ptr noundef readonly captures(none) %0, i16 noundef zeroext %1, i16 noundef zeroext %2, i64 noundef %3, ptr noundef %4, i32 noundef %5) local_unnamed_addr #0 {
  %7 = alloca i64, align 8
  %8 = alloca %struct.ieee802154_short_addr, align 2
  %9 = alloca ptr, align 8
  store i64 %3, ptr %7, align 8
  call void @llvm.lifetime.start.p0(i64 4, ptr nonnull %8) #19
  call void @llvm.lifetime.start.p0(i64 8, ptr nonnull %9) #19
  store i16 %2, ptr %8, align 2
  %10 = getelementptr inbounds nuw i8, ptr %8, i64 2
  store i16 %1, ptr %10, align 2
  %11 = getelementptr inbounds nuw i8, ptr %0, i64 8
  %12 = load ptr, ptr %11, align 8
  %13 = call ptr @g_hash_table_lookup(ptr noundef %12, ptr noundef nonnull %8)
  %.not = icmp eq ptr %13, null
  br i1 %.not, label %20, label %14

14:                                               ; preds = %6
  %15 = getelementptr inbounds nuw i8, ptr %13, i64 16
  %16 = load i64, ptr %15, align 8
  %17 = icmp eq i64 %16, %3
  br i1 %17, label %45, label %18

18:                                               ; preds = %14
  %19 = getelementptr inbounds nuw i8, ptr %13, i64 12
  store i32 %5, ptr %19, align 4
  br label %20

20:                                               ; preds = %18, %6
  %21 = call ptr @wmem_file_scope()
  %22 = call noalias dereferenceable_or_null(24) ptr @wmem_alloc(ptr noundef %21, i64 noundef 24) #20
  store ptr %4, ptr %22, align 8
  %23 = getelementptr inbounds nuw i8, ptr %22, i64 8
  store i32 %5, ptr %23, align 8
  %24 = getelementptr inbounds nuw i8, ptr %22, i64 12
  store i32 0, ptr %24, align 4
  %25 = getelementptr inbounds nuw i8, ptr %22, i64 16
  store i64 %3, ptr %25, align 8
  %26 = load ptr, ptr %11, align 8
  %27 = call i32 @g_hash_table_lookup_extended(ptr noundef %26, ptr noundef nonnull %8, ptr noundef nonnull %9, ptr noundef null)
  %.not26 = icmp eq i32 %27, 0
  %28 = load ptr, ptr %11, align 8
  br i1 %.not26, label %31, label %29

29:                                               ; preds = %20
  %30 = load ptr, ptr %9, align 8
  br label %34

31:                                               ; preds = %20
  %32 = call ptr @wmem_file_scope()
  %33 = call dereferenceable_or_null(4) ptr @wmem_memdup(ptr noundef %32, ptr noundef nonnull %8, i64 noundef 4) #22
  br label %34

34:                                               ; preds = %31, %29
  %.sink = phi ptr [ %33, %31 ], [ %30, %29 ]
  %35 = call i32 @g_hash_table_insert(ptr noundef %28, ptr noundef %.sink, ptr noundef %22)
  %36 = load ptr, ptr %0, align 8
  %37 = call i32 @g_hash_table_lookup_extended(ptr noundef %36, ptr noundef nonnull %7, ptr noundef nonnull %9, ptr noundef null)
  %.not27 = icmp eq i32 %37, 0
  %38 = load ptr, ptr %0, align 8
  br i1 %.not27, label %41, label %39

39:                                               ; preds = %34
  %40 = load ptr, ptr %9, align 8
  br label %.sink.split

41:                                               ; preds = %34
  %42 = call ptr @wmem_file_scope()
  %43 = call dereferenceable_or_null(8) ptr @wmem_memdup(ptr noundef %42, ptr noundef nonnull %7, i64 noundef 8) #22
  br label %.sink.split

.sink.split:                                      ; preds = %41, %39
  %.sink28 = phi ptr [ %40, %39 ], [ %43, %41 ]
  %44 = call i32 @g_hash_table_insert(ptr noundef %38, ptr noundef %.sink28, ptr noundef %22)
  br label %45

45:                                               ; preds = %.sink.split, %14
  %.0 = phi ptr [ %13, %14 ], [ %22, %.sink.split ]
  call void @llvm.lifetime.end.p0(i64 8, ptr nonnull %9) #19
  call void @llvm.lifetime.end.p0(i64 4, ptr nonnull %8) #19
  ret ptr %.0
}